target datalayout = "e-m:e-p270:32:32-p271:32:32-p272:64:64-i64:64-i128:128-f80:128-n8:16:32:64-S128"
target triple = "x86_64-pc-linux-gnu"

%struct.pmix_hash_element_t = type { i32, %union.anon, ptr, ptr }
%union.anon = type { %struct.anon }
%struct.anon = type { ptr, i64 }

; Function Attrs: nounwind uwtable
define internal i64 @pmix_hash_hash_key_ptr(ptr noundef %0, i64 noundef %1) #0 {
  %3 = alloca ptr, align 8
  %4 = alloca i64, align 8
  %5 = alloca i64, align 8
  %6 = alloca ptr, align 8
  %7 = alloca i64, align 8
  store ptr %0, ptr %3, align 8, !tbaa !42
  store i64 %1, ptr %4, align 8, !tbaa !28
  call void @llvm.lifetime.start.p0(i64 8, ptr %5) #9
  call void @llvm.lifetime.start.p0(i64 8, ptr %6) #9
  call void @llvm.lifetime.start.p0(i64 8, ptr %7) #9
  store i64 0, ptr %5, align 8, !tbaa !28
  %8 = load ptr, ptr %3, align 8, !tbaa !42
  store ptr %8, ptr %6, align 8, !tbaa !48
  store i64 0, ptr %7, align 8, !tbaa !28
  br label %9

9:                                                ; preds = %21, %2
  %10 = load i64, ptr %7, align 8, !tbaa !28
  %11 = load i64, ptr %4, align 8, !tbaa !28
  %12 = icmp ult i64 %10, %11
  br i1 %12, label %13, label %24

13:                                               ; preds = %9
  %14 = load i64, ptr %5, align 8, !tbaa !28
  %15 = mul i64 31, %14
  %16 = load ptr, ptr %6, align 8, !tbaa !48
  %17 = getelementptr inbounds nuw i8, ptr %16, i32 1
  store ptr %17, ptr %6, align 8, !tbaa !48
  %18 = load i8, ptr %16, align 1, !tbaa !43
  %19 = zext i8 %18 to i64
  %20 = add i64 %15, %19
  store i64 %20, ptr %5, align 8, !tbaa !28
  br label %21

21:                                               ; preds = %13
  %22 = load i64, ptr %7, align 8, !tbaa !28
  %23 = add i64 %22, 1
  store i64 %23, ptr %7, align 8, !tbaa !28
  br label %9, !llvm.loop !49

24:                                               ; preds = %9
  %25 = load i64, ptr %5, align 8, !tbaa !28
  call void @llvm.lifetime.end.p0(i64 8, ptr %7) #9
  call void @llvm.lifetime.end.p0(i64 8, ptr %6) #9
  call void @llvm.lifetime.end.p0(i64 8, ptr %5) #9
  ret i64 %25
}

; Function Attrs: nounwind uwtable
define internal i64 @pmix_hash_hash_elt_ptr(ptr noundef %0) #0 {
  %2 = alloca ptr, align 8
  store ptr %0, ptr %2, align 8, !tbaa !34
  %3 = load ptr, ptr %2, align 8, !tbaa !34
  %4 = getelementptr inbounds nuw %struct.pmix_hash_element_t, ptr %3, i32 0, i32 1
  %5 = getelementptr inbounds nuw %struct.anon, ptr %4, i32 0, i32 0
  %6 = load ptr, ptr %5, align 8, !tbaa !43
  %7 = load ptr, ptr %2, align 8, !tbaa !34
  %8 = getelementptr inbounds nuw %struct.pmix_hash_element_t, ptr %7, i32 0, i32 1
  %9 = getelementptr inbounds nuw %struct.anon, ptr %8, i32 0, i32 1
  %10 = load i64, ptr %9, align 8, !tbaa !43
  %11 = call i64 @pmix_hash_hash_key_ptr(ptr noundef %6, i64 noundef %10)
  ret i64 %11
}