; Function Attrs: nofree norecurse nosync nounwind memory(read, inaccessiblemem: none) uwtable
define internal i64 @pmix_hash_hash_elt_ptr(ptr noundef readonly captures(none) %0) #9 {
  %2 = getelementptr inbounds nuw i8, ptr %0, i64 16
  %3 = load i64, ptr %2, align 8, !tbaa !36
  %.not.i = icmp eq i64 %3, 0
  br i1 %.not.i, label %pmix_hash_hash_key_ptr.exit, label %.lr.ph.i.preheader

.lr.ph.i.preheader:                               ; preds = %1
  %4 = getelementptr inbounds nuw i8, ptr %0, i64 8
  %5 = load ptr, ptr %4, align 8, !tbaa !36
  br label %.lr.ph.i

.lr.ph.i:                                         ; preds = %.lr.ph.i.preheader, %.lr.ph.i
  %.010.i = phi i64 [ %11, %.lr.ph.i ], [ 0, %.lr.ph.i.preheader ]
  %.069.i = phi ptr [ %7, %.lr.ph.i ], [ %5, %.lr.ph.i.preheader ]
  %.078.i = phi i64 [ %10, %.lr.ph.i ], [ 0, %.lr.ph.i.preheader ]
  %6 = mul i64 %.078.i, 31
  %7 = getelementptr inbounds nuw i8, ptr %.069.i, i64 1
  %8 = load i8, ptr %.069.i, align 1, !tbaa !36
  %9 = zext i8 %8 to i64
  %10 = add i64 %6, %9
  %11 = add nuw i64 %.010.i, 1
  %exitcond.not.i = icmp eq i64 %11, %3
  br i1 %exitcond.not.i, label %pmix_hash_hash_key_ptr.exit, label %.lr.ph.i, !llvm.loop !44

pmix_hash_hash_key_ptr.exit:                      ; preds = %.lr.ph.i, %1
  %.07.lcssa.i = phi i64 [ 0, %1 ], [ %10, %.lr.ph.i ]
  ret i64 %.07.lcssa.i
}